; Function Attrs: nounwind uwtable
define hidden void @Wayland_SendWakeupEvent(ptr noundef readonly captures(none) %0, ptr noundef readnone captures(none) %1) local_unnamed_addr #0 {
  %3 = getelementptr inbounds nuw i8, ptr %0, i64 1656
  %4 = load ptr, ptr %3, align 8
  %5 = getelementptr inbounds nuw i8, ptr %4, i64 8
  %6 = load ptr, ptr %5, align 8
  %7 = load ptr, ptr @WAYLAND_wl_proxy_marshal_flags, align 8
  %8 = load ptr, ptr @WAYLAND_wl_proxy_get_version, align 8
  %9 = tail call i32 %8(ptr noundef %6) #12
  %10 = tail call ptr (ptr, i32, ptr, i32, i32, ...) %7(ptr noundef %6, i32 noundef 0, ptr noundef nonnull @wl_callback_interface, i32 noundef %9, i32 noundef 0, ptr noundef null) #12
  %11 = load ptr, ptr @WAYLAND_wl_proxy_add_listener, align 8
  %12 = tail call i32 %11(ptr noundef %10, ptr noundef nonnull @sync_listener, ptr noundef null) #12
  %13 = load ptr, ptr @WAYLAND_wl_display_flush, align 8
  %14 = load ptr, ptr %5, align 8
  %15 = tail call i32 %13(ptr noundef %14) #12
  ret void
}